; ModuleID = 'source-C-CXX/26/103.c'
source_filename = "source-C-CXX/26/103.c"
target datalayout = "e-m:e-p270:32:32-p271:32:32-p272:64:64-i64:64-f80:128-n8:16:32:64-S128"
target triple = "x86_64-pc-linux-gnu"

@.str = private unnamed_addr constant [3 x i8] c"%d\00", align 1
@.str.1 = private unnamed_addr constant [10 x i8] c"%lf%lf%lf\00", align 1
@.str.2 = private unnamed_addr constant [19 x i8] c"x1=%.5lf;x2=%.5lf\0A\00", align 1
@.str.3 = private unnamed_addr constant [13 x i8] c"x1=x2=%.5lf\0A\00", align 1
@.str.4 = private unnamed_addr constant [9 x i8] c"x1=%.5lf\00", align 1
@.str.5 = private unnamed_addr constant [8 x i8] c"+%.5lfi\00", align 1
@.str.6 = private unnamed_addr constant [7 x i8] c"%.5lfi\00", align 1
@.str.7 = private unnamed_addr constant [10 x i8] c";x2=%.5lf\00", align 1
@.str.8 = private unnamed_addr constant [8 x i8] c"%.5lfi\0A\00", align 1

; Function Attrs: nofree nounwind sspstrong uwtable
define dso_local i32 @main() local_unnamed_addr #0 {
  %1 = alloca i32, align 4
  %2 = alloca double, align 8
  %3 = alloca double, align 8
  %4 = alloca double, align 8
  %5 = bitcast i32* %1 to i8*
  call void @llvm.lifetime.start.p0i8(i64 4, i8* nonnull %5) #4
  %6 = call i32 (i8*, ...) @__isoc99_scanf(i8* getelementptr inbounds ([3 x i8], [3 x i8]* @.str, i64 0, i64 0), i32* nonnull %1)
  %7 = bitcast double* %2 to i8*
  call void @llvm.lifetime.start.p0i8(i64 8, i8* nonnull %7) #4
  %8 = bitcast double* %3 to i8*
  call void @llvm.lifetime.start.p0i8(i64 8, i8* nonnull %8) #4
  %9 = bitcast double* %4 to i8*
  call void @llvm.lifetime.start.p0i8(i64 8, i8* nonnull %9) #4
  %10 = load i32, i32* %1, align 4, !tbaa !5
  %11 = icmp slt i32 %10, 1
  br i1 %11, label %87, label %12

12:                                               ; preds = %0, %83
  %13 = phi i32 [ %84, %83 ], [ 1, %0 ]
  %14 = call i32 (i8*, ...) @__isoc99_scanf(i8* getelementptr inbounds ([10 x i8], [10 x i8]* @.str.1, i64 0, i64 0), double* nonnull %2, double* nonnull %3, double* nonnull %4)
  %15 = load double, double* %3, align 8, !tbaa !9
  %16 = fmul double %15, %15
  %17 = load double, double* %2, align 8, !tbaa !9
  %18 = fmul double %17, 4.000000e+00
  %19 = load double, double* %4, align 8, !tbaa !9
  %20 = fmul double %18, %19
  %21 = fsub double %16, %20
  %22 = fcmp ult double %21, 0.000000e+00
  br i1 %22, label %48, label %23

23:                                               ; preds = %12
  %24 = call double @sqrt(double %21) #4
  %25 = load double, double* %2, align 8, !tbaa !9
  %26 = load double, double* %3, align 8, !tbaa !9
  %27 = fneg double %26
  %28 = call double @sqrt(double %21) #4
  %29 = insertelement <2 x double> poison, double %24, i32 0
  %30 = insertelement <2 x double> %29, double %27, i32 1
  %31 = insertelement <2 x double> poison, double %15, i32 0
  %32 = insertelement <2 x double> %31, double %28, i32 1
  %33 = fsub <2 x double> %30, %32
  %34 = load double, double* %2, align 8, !tbaa !9
  %35 = insertelement <2 x double> poison, double %25, i32 0
  %36 = insertelement <2 x double> %35, double %34, i32 1
  %37 = fmul <2 x double> %36, <double 2.000000e+00, double 2.000000e+00>
  %38 = fdiv <2 x double> %33, %37
  %39 = extractelement <2 x double> %38, i32 0
  %40 = extractelement <2 x double> %38, i32 1
  %41 = fcmp une double %39, %40
  br i1 %41, label %42, label %44

42:                                               ; preds = %23
  %43 = call i32 (i8*, ...) @printf(i8* nonnull dereferenceable(1) getelementptr inbounds ([19 x i8], [19 x i8]* @.str.2, i64 0, i64 0), double %39, double %40)
  br label %44

44:                                               ; preds = %42, %23
  %45 = fcmp oeq double %39, %40
  br i1 %45, label %46, label %48

46:                                               ; preds = %44
  %47 = call i32 (i8*, ...) @printf(i8* nonnull dereferenceable(1) getelementptr inbounds ([13 x i8], [13 x i8]* @.str.3, i64 0, i64 0), double %40)
  br label %48

48:                                               ; preds = %44, %46, %12
  %49 = fcmp olt double %21, 0.000000e+00
  br i1 %49, label %50, label %83

50:                                               ; preds = %48
  %51 = load double, double* %3, align 8, !tbaa !9
  %52 = fneg double %51
  %53 = load double, double* %2, align 8, !tbaa !9
  %54 = fmul double %53, 2.000000e+00
  %55 = fdiv double %52, %54
  %56 = fneg double %21
  %57 = call double @sqrt(double %56) #4
  %58 = load double, double* %2, align 8, !tbaa !9
  %59 = fmul double %58, 2.000000e+00
  %60 = fdiv double %57, %59
  %61 = call double @sqrt(double %56) #4
  %62 = fneg double %61
  %63 = load double, double* %2, align 8, !tbaa !9
  %64 = fmul double %63, 2.000000e+00
  %65 = fdiv double %62, %64
  %66 = call i32 (i8*, ...) @printf(i8* nonnull dereferenceable(1) getelementptr inbounds ([9 x i8], [9 x i8]* @.str.4, i64 0, i64 0), double %55)
  %67 = fcmp ogt double %60, 0.000000e+00
  br i1 %67, label %68, label %70

68:                                               ; preds = %50
  %69 = call i32 (i8*, ...) @printf(i8* nonnull dereferenceable(1) getelementptr inbounds ([8 x i8], [8 x i8]* @.str.5, i64 0, i64 0), double %60)
  br label %70

70:                                               ; preds = %68, %50
  %71 = fcmp olt double %60, 0.000000e+00
  br i1 %71, label %72, label %74

72:                                               ; preds = %70
  %73 = call i32 (i8*, ...) @printf(i8* nonnull dereferenceable(1) getelementptr inbounds ([7 x i8], [7 x i8]* @.str.6, i64 0, i64 0), double %60)
  br label %74

74:                                               ; preds = %72, %70
  %75 = call i32 (i8*, ...) @printf(i8* nonnull dereferenceable(1) getelementptr inbounds ([10 x i8], [10 x i8]* @.str.7, i64 0, i64 0), double %55)
  %76 = fcmp ogt double %65, 0.000000e+00
  br i1 %76, label %77, label %79

77:                                               ; preds = %74
  %78 = call i32 (i8*, ...) @printf(i8* nonnull dereferenceable(1) getelementptr inbounds ([8 x i8], [8 x i8]* @.str.5, i64 0, i64 0), double %65)
  br label %79

79:                                               ; preds = %77, %74
  %80 = fcmp olt double %65, 0.000000e+00
  br i1 %80, label %81, label %83

81:                                               ; preds = %79
  %82 = call i32 (i8*, ...) @printf(i8* nonnull dereferenceable(1) getelementptr inbounds ([8 x i8], [8 x i8]* @.str.8, i64 0, i64 0), double %65)
  br label %83

83:                                               ; preds = %48, %81, %79
  %84 = add nuw nsw i32 %13, 1
  %85 = load i32, i32* %1, align 4, !tbaa !5
  %86 = icmp slt i32 %13, %85
  br i1 %86, label %12, label %87, !llvm.loop !11

87:                                               ; preds = %83, %0
  call void @llvm.lifetime.end.p0i8(i64 8, i8* nonnull %9) #4
  call void @llvm.lifetime.end.p0i8(i64 8, i8* nonnull %8) #4
  call void @llvm.lifetime.end.p0i8(i64 8, i8* nonnull %7) #4
  call void @llvm.lifetime.end.p0i8(i64 4, i8* nonnull %5) #4
  ret i32 0
}

; Function Attrs: argmemonly mustprogress nofree nosync nounwind willreturn
declare void @llvm.lifetime.start.p0i8(i64 immarg, i8* nocapture) #1

; Function Attrs: nofree nounwind
declare noundef i32 @__isoc99_scanf(i8* nocapture noundef readonly, ...) local_unnamed_addr #2

; Function Attrs: mustprogress nofree nounwind willreturn
declare double @sqrt(double) local_unnamed_addr #3

; Function Attrs: nofree nounwind
declare noundef i32 @printf(i8* nocapture noundef readonly, ...) local_unnamed_addr #2

; Function Attrs: argmemonly mustprogress nofree nosync nounwind willreturn
declare void @llvm.lifetime.end.p0i8(i64 immarg, i8* nocapture) #1


!llvm.module.flags = !{!0, !1, !2, !3}
!llvm.ident = !{!4}

!0 = !{i32 1, !"wchar_size", i32 4}
!1 = !{i32 7, !"PIC Level", i32 2}
!2 = !{i32 7, !"PIE Level", i32 2}
!3 = !{i32 7, !"uwtable", i32 1}
!4 = !{!"clang version 13.0.0"}
!5 = !{!6, !6, i64 0}
!6 = !{!"int", !7, i64 0}
!7 = !{!"omnipotent char", !8, i64 0}
!8 = !{!"Simple C/C++ TBAA"}
!9 = !{!10, !10, i64 0}
!10 = !{!"double", !7, i64 0}
!11 = distinct !{!11, !12}
!12 = !{!"llvm.loop.mustprogress"}
